GAS LISTING main.s 			page 1


   1              		.file	"main.c"
   2              		.option pic
   3              		.attribute arch, "rv32i2p0"
   4              		.attribute unaligned_access, 0
   5              		.attribute stack_align, 16
   6              		.text
   7              		.section	.rodata
   8              		.align	2
   9              	.LC1:
  10 0000 4D656D5F 		.string	"Mem_files/prog.mem"
  10      66696C65 
  10      732F7072 
  10      6F672E6D 
  10      656D00
  11 0013 00       		.align	2
  12              	.LC2:
  13 0014 2D6600   		.string	"-f"
  14 0017 00       		.align	2
  15              	.LC3:
  16 0018 2D6D00   		.string	"-m"
  17 001b 00       		.align	2
  18              	.LC4:
  19 001c 2D737000 		.string	"-sp"
  20              		.align	2
  21              	.LC5:
  22 0020 2D7300   		.string	"-s"
  23 0023 00       		.align	2
  24              	.LC6:
  25 0024 0A496E76 		.string	"\nInvalid Arguments"
  25      616C6964 
  25      20417267 
  25      756D656E 
  25      747300
  26 0037 00       		.align	2
  27              	.LC7:
  28 0038 7200     		.string	"r"
  29 003a 0000     		.align	2
  30              	.LC8:
  31 003c 54686520 		.string	"The '%s' file provided can't be opened. Attempting to open defult file '%s'. \n"
  31      27257327 
  31      2066696C 
  31      65207072 
  31      6F766964 
  32 008b 00       		.align	2
  33              	.LC9:
  34 008c 4572726F 		.string	"Error opening file"
  34      72206F70 
  34      656E696E 
  34      67206669 
  34      6C6500
  35 009f 00       		.align	2
  36              	.LC10:
  37 00a0 41646472 		.string	"Address 0x%08X is out of memory bounds\n"
  37      65737320 
  37      30782530 
  37      38582069 
  37      73206F75 
GAS LISTING main.s 			page 2


  38              		.align	2
  39              	.LC11:
  40 00c8 25783A20 		.string	"%x: %x"
  40      257800
  41 00cf 00       		.align	2
  42              	.LC12:
  43 00d0 456E6420 		.string	"End of Program\n"
  43      6F662050 
  43      726F6772 
  43      616D0A00 
  44              		.align	2
  45              	.LC13:
  46 00e0 30782530 		.string	"0x%02X is an invalid op code.\n"
  46      32582069 
  46      7320616E 
  46      20696E76 
  46      616C6964 
  47 00ff 00       		.align	2
  48              	.LC0:
  49 0100 33000000 		.word	51
  50 0104 13000000 		.word	19
  51 0108 03000000 		.word	3
  52 010c 23000000 		.word	35
  53 0110 63000000 		.word	99
  54 0114 6F000000 		.word	111
  55 0118 67000000 		.word	103
  56 011c 37000000 		.word	55
  57 0120 17000000 		.word	23
  58 0124 73000000 		.word	115
  59              		.text
  60              		.align	2
  61              		.globl	main
  63              	main:
  64 0000 130101EC 		addi	sp,sp,-320
  65 0004 232E1112 		sw	ra,316(sp)
  66 0008 232C8112 		sw	s0,312(sp)
  67 000c 232A9112 		sw	s1,308(sp)
  68 0010 23282113 		sw	s2,304(sp)
  69 0014 23263113 		sw	s3,300(sp)
  70 0018 23244113 		sw	s4,296(sp)
  71 001c 23225113 		sw	s5,292(sp)
  72 0020 23206113 		sw	s6,288(sp)
  73 0024 232E7111 		sw	s7,284(sp)
  74 0028 232C8111 		sw	s8,280(sp)
  75 002c 232A9111 		sw	s9,276(sp)
  76 0030 13040114 		addi	s0,sp,320
  77 0034 2326A4EC 		sw	a0,-308(s0)
  78 0038 2324B4EC 		sw	a1,-312(s0)
  79 003c 232404FC 		sw	zero,-56(s0)
  80 0040 93071000 		li	a5,1
  81 0044 A307F4FC 		sb	a5,-49(s0)
  82 0048 97070000 		lla	a5,.LC0
  82      93870700 
  83 0050 03AE0700 		lw	t3,0(a5)
  84 0054 03A34700 		lw	t1,4(a5)
  85 0058 83A88700 		lw	a7,8(a5)
  86 005c 03A8C700 		lw	a6,12(a5)
GAS LISTING main.s 			page 3


  87 0060 03A50701 		lw	a0,16(a5)
  88 0064 83A54701 		lw	a1,20(a5)
  89 0068 03A68701 		lw	a2,24(a5)
  90 006c 83A6C701 		lw	a3,28(a5)
  91 0070 03A70702 		lw	a4,32(a5)
  92 0074 83A74702 		lw	a5,36(a5)
  93 0078 232EC4F5 		sw	t3,-164(s0)
  94 007c 232064F6 		sw	t1,-160(s0)
  95 0080 232214F7 		sw	a7,-156(s0)
  96 0084 232404F7 		sw	a6,-152(s0)
  97 0088 2326A4F6 		sw	a0,-148(s0)
  98 008c 2328B4F6 		sw	a1,-144(s0)
  99 0090 232AC4F6 		sw	a2,-140(s0)
 100 0094 232CD4F6 		sw	a3,-136(s0)
 101 0098 232EE4F6 		sw	a4,-132(s0)
 102 009c 2320F4F8 		sw	a5,-128(s0)
 103 00a0 232E04EC 		sw	zero,-292(s0)
 104 00a4 232004EE 		sw	zero,-288(s0)
 105 00a8 232204EE 		sw	zero,-284(s0)
 106 00ac 232C04FA 		sw	zero,-72(s0)
 107 00b0 B7070100 		li	a5,65536
 108 00b4 232AF4FA 		sw	a5,-76(s0)
 109 00b8 232804FA 		sw	zero,-80(s0)
 110 00bc 97070000 		lla	a5,.LC1
 110      93870700 
 111 00c4 2326F4FA 		sw	a5,-84(s0)
 112 00c8 8327C4FA 		lw	a5,-84(s0)
 113 00cc 2322F4FC 		sw	a5,-60(s0)
 114 00d0 8327C4EC 		lw	a5,-308(s0)
 115 00d4 9387F7FF 		addi	a5,a5,-1
 116 00d8 2326F4EC 		sw	a5,-308(s0)
 117 00dc 832784EC 		lw	a5,-312(s0)
 118 00e0 93874700 		addi	a5,a5,4
 119 00e4 2324F4EC 		sw	a5,-312(s0)
 120 00e8 6F000014 		j	.L2
 121              	.L8:
 122 00ec 832784EC 		lw	a5,-312(s0)
 123 00f0 83A70700 		lw	a5,0(a5)
 124 00f4 97050000 		lla	a1,.LC2
 124      93850500 
 125 00fc 13850700 		mv	a0,a5
 126 0100 97000000 		call	strcmp@plt
 126      E7800000 
 127 0108 93070500 		mv	a5,a0
 128 010c 639A0700 		bne	a5,zero,.L3
 129 0110 832784EC 		lw	a5,-312(s0)
 130 0114 83A74700 		lw	a5,4(a5)
 131 0118 2322F4FC 		sw	a5,-60(s0)
 132 011c 6F00400F 		j	.L4
 133              	.L3:
 134 0120 832784EC 		lw	a5,-312(s0)
 135 0124 83A70700 		lw	a5,0(a5)
 136 0128 97050000 		lla	a1,.LC3
 136      93850500 
 137 0130 13850700 		mv	a0,a5
 138 0134 97000000 		call	strcmp@plt
 138      E7800000 
GAS LISTING main.s 			page 4


 139 013c 93070500 		mv	a5,a0
 140 0140 63920702 		bne	a5,zero,.L5
 141 0144 832784EC 		lw	a5,-312(s0)
 142 0148 93874700 		addi	a5,a5,4
 143 014c 83A70700 		lw	a5,0(a5)
 144 0150 13850700 		mv	a0,a5
 145 0154 97000000 		call	atoi@plt
 145      E7800000 
 146 015c 232CA4FA 		sw	a0,-72(s0)
 147 0160 6F00000B 		j	.L4
 148              	.L5:
 149 0164 832784EC 		lw	a5,-312(s0)
 150 0168 83A70700 		lw	a5,0(a5)
 151 016c 97050000 		lla	a1,.LC4
 151      93850500 
 152 0174 13850700 		mv	a0,a5
 153 0178 97000000 		call	strcmp@plt
 153      E7800000 
 154 0180 93070500 		mv	a5,a0
 155 0184 63840702 		beq	a5,zero,.L6
 156 0188 832784EC 		lw	a5,-312(s0)
 157 018c 93874700 		addi	a5,a5,4
 158 0190 83A70700 		lw	a5,0(a5)
 159 0194 13850700 		mv	a0,a5
 160 0198 97000000 		call	atoi@plt
 160      E7800000 
 161 01a0 93070500 		mv	a5,a0
 162 01a4 232AF4FA 		sw	a5,-76(s0)
 163 01a8 6F008006 		j	.L4
 164              	.L6:
 165 01ac 832784EC 		lw	a5,-312(s0)
 166 01b0 83A70700 		lw	a5,0(a5)
 167 01b4 97050000 		lla	a1,.LC5
 167      93850500 
 168 01bc 13850700 		mv	a0,a5
 169 01c0 97000000 		call	strcmp@plt
 169      E7800000 
 170 01c8 93070500 		mv	a5,a0
 171 01cc 63840702 		beq	a5,zero,.L7
 172 01d0 832784EC 		lw	a5,-312(s0)
 173 01d4 93874700 		addi	a5,a5,4
 174 01d8 83A70700 		lw	a5,0(a5)
 175 01dc 13850700 		mv	a0,a5
 176 01e0 97000000 		call	atoi@plt
 176      E7800000 
 177 01e8 93070500 		mv	a5,a0
 178 01ec 2328F4FA 		sw	a5,-80(s0)
 179 01f0 6F000002 		j	.L4
 180              	.L7:
 181 01f4 17050000 		lla	a0,.LC6
 181      13050500 
 182 01fc 97000000 		call	puts@plt
 182      E7800000 
 183 0204 1305F0FF 		li	a0,-1
 184 0208 97000000 		call	exit@plt
 184      E7800000 
 185              	.L4:
GAS LISTING main.s 			page 5


 186 0210 8327C4EC 		lw	a5,-308(s0)
 187 0214 9387E7FF 		addi	a5,a5,-2
 188 0218 2326F4EC 		sw	a5,-308(s0)
 189 021c 832784EC 		lw	a5,-312(s0)
 190 0220 93878700 		addi	a5,a5,8
 191 0224 2324F4EC 		sw	a5,-312(s0)
 192              	.L2:
 193 0228 8327C4EC 		lw	a5,-308(s0)
 194 022c E340F0EC 		bgt	a5,zero,.L8
 195 0230 97050000 		lla	a1,.LC7
 195      93850500 
 196 0238 032544FC 		lw	a0,-60(s0)
 197 023c 97000000 		call	fopen@plt
 197      E7800000 
 198 0244 2320A4FC 		sw	a0,-64(s0)
 199 0248 B7170000 		li	a5,4096
 200 024c 93870780 		addi	a5,a5,-2048
 201 0250 2324F4FA 		sw	a5,-88(s0)
 202 0254 93070100 		mv	a5,sp
 203 0258 93840700 		mv	s1,a5
 204 025c 832784FA 		lw	a5,-88(s0)
 205 0260 9387F7FF 		addi	a5,a5,-1
 206 0264 2322F4FA 		sw	a5,-92(s0)
 207 0268 832784FA 		lw	a5,-88(s0)
 208 026c 138C0700 		mv	s8,a5
 209 0270 930C0000 		li	s9,0
 210 0274 9357BC01 		srli	a5,s8,27
 211 0278 939A5C00 		slli	s5,s9,5
 212 027c B3EA5701 		or	s5,a5,s5
 213 0280 131A5C00 		slli	s4,s8,5
 214 0284 832784FA 		lw	a5,-88(s0)
 215 0288 138B0700 		mv	s6,a5
 216 028c 930B0000 		li	s7,0
 217 0290 9357BB01 		srli	a5,s6,27
 218 0294 93995B00 		slli	s3,s7,5
 219 0298 B3E93701 		or	s3,a5,s3
 220 029c 13195B00 		slli	s2,s6,5
 221 02a0 832784FA 		lw	a5,-88(s0)
 222 02a4 93972700 		slli	a5,a5,2
 223 02a8 9387F700 		addi	a5,a5,15
 224 02ac 93D74700 		srli	a5,a5,4
 225 02b0 93974700 		slli	a5,a5,4
 226 02b4 3301F140 		sub	sp,sp,a5
 227 02b8 93070100 		mv	a5,sp
 228 02bc 93873700 		addi	a5,a5,3
 229 02c0 93D72700 		srli	a5,a5,2
 230 02c4 93972700 		slli	a5,a5,2
 231 02c8 2320F4FA 		sw	a5,-96(s0)
 232 02cc 232E04FA 		sw	zero,-68(s0)
 233 02d0 6F004002 		j	.L9
 234              	.L10:
 235 02d4 032704FA 		lw	a4,-96(s0)
 236 02d8 8327C4FB 		lw	a5,-68(s0)
 237 02dc 93972700 		slli	a5,a5,2
 238 02e0 B307F700 		add	a5,a4,a5
 239 02e4 23A00700 		sw	zero,0(a5)
 240 02e8 8327C4FB 		lw	a5,-68(s0)
GAS LISTING main.s 			page 6


 241 02ec 93871700 		addi	a5,a5,1
 242 02f0 232EF4FA 		sw	a5,-68(s0)
 243              	.L9:
 244 02f4 0327C4FB 		lw	a4,-68(s0)
 245 02f8 832784FA 		lw	a5,-88(s0)
 246 02fc E34CF7FC 		blt	a4,a5,.L10
 247 0300 832704FC 		lw	a5,-64(s0)
 248 0304 63980704 		bne	a5,zero,.L11
 249 0308 97070000 		la	a5,_impure_ptr
 249      83A70700 
 250 0310 83A70700 		lw	a5,0(a5)
 251 0314 83A7C700 		lw	a5,12(a5)
 252 0318 8326C4FA 		lw	a3,-84(s0)
 253 031c 032644FC 		lw	a2,-60(s0)
 254 0320 97050000 		lla	a1,.LC8
 254      93850500 
 255 0328 13850700 		mv	a0,a5
 256 032c 97000000 		call	fprintf@plt
 256      E7800000 
 257 0334 8327C4FA 		lw	a5,-84(s0)
 258 0338 2322F4FC 		sw	a5,-60(s0)
 259 033c 97050000 		lla	a1,.LC7
 259      93850500 
 260 0344 032544FC 		lw	a0,-60(s0)
 261 0348 97000000 		call	fopen@plt
 261      E7800000 
 262 0350 2320A4FC 		sw	a0,-64(s0)
 263              	.L11:
 264 0354 832704FC 		lw	a5,-64(s0)
 265 0358 639E0700 		bne	a5,zero,.L12
 266 035c 17050000 		lla	a0,.LC9
 266      13050500 
 267 0364 97000000 		call	perror@plt
 267      E7800000 
 268 036c 9307F0FF 		li	a5,-1
 269 0370 6F004029 		j	.L13
 270              	.L12:
 271 0374 B7070100 		li	a5,65536
 272 0378 232EF4F8 		sw	a5,-100(s0)
 273 037c 6F008005 		j	.L14
 274              	.L16:
 275 0380 0327C4F8 		lw	a4,-116(s0)
 276 0384 8327C4F9 		lw	a5,-100(s0)
 277 0388 6368F702 		bltu	a4,a5,.L15
 278 038c 97070000 		la	a5,_impure_ptr
 278      83A70700 
 279 0394 83A70700 		lw	a5,0(a5)
 280 0398 83A7C700 		lw	a5,12(a5)
 281 039c 0327C4F8 		lw	a4,-116(s0)
 282 03a0 13060700 		mv	a2,a4
 283 03a4 97050000 		lla	a1,.LC10
 283      93850500 
 284 03ac 13850700 		mv	a0,a5
 285 03b0 97000000 		call	fprintf@plt
 285      E7800000 
 286              	.L15:
 287 03b8 8327C4F8 		lw	a5,-116(s0)
GAS LISTING main.s 			page 7


 288 03bc 93D72700 		srli	a5,a5,2
 289 03c0 032784F8 		lw	a4,-120(s0)
 290 03c4 832604FA 		lw	a3,-96(s0)
 291 03c8 93972700 		slli	a5,a5,2
 292 03cc B387F600 		add	a5,a3,a5
 293 03d0 23A0E700 		sw	a4,0(a5)
 294              	.L14:
 295 03d4 130784F8 		addi	a4,s0,-120
 296 03d8 9307C4F8 		addi	a5,s0,-116
 297 03dc 93060700 		mv	a3,a4
 298 03e0 13860700 		mv	a2,a5
 299 03e4 97050000 		lla	a1,.LC11
 299      93850500 
 300 03ec 032504FC 		lw	a0,-64(s0)
 301 03f0 97000000 		call	fscanf@plt
 301      E7800000 
 302 03f8 13070500 		mv	a4,a0
 303 03fc 93072000 		li	a5,2
 304 0400 E300F7F8 		beq	a4,a5,.L16
 305 0404 6F00401D 		j	.L17
 306              	.L30:
 307 0408 930744F8 		addi	a5,s0,-124
 308 040c 13860700 		mv	a2,a5
 309 0410 832584FC 		lw	a1,-56(s0)
 310 0414 032504FA 		lw	a0,-96(s0)
 311 0418 97000000 		call	fetch_and_decode@plt
 311      E7800000 
 312 0420 832744F8 		lw	a5,-124(s0)
 313 0424 1307F006 		li	a4,111
 314 0428 638EE70C 		beq	a5,a4,.L18
 315 042c 1307F006 		li	a4,111
 316 0430 6362F716 		bgtu	a5,a4,.L19
 317 0434 13077006 		li	a4,103
 318 0438 6386E706 		beq	a5,a4,.L20
 319 043c 13077006 		li	a4,103
 320 0440 636AF714 		bgtu	a5,a4,.L19
 321 0444 13077003 		li	a4,55
 322 0448 6368F702 		bgtu	a5,a4,.L21
 323 044c 13077003 		li	a4,55
 324 0450 6362F714 		bgtu	a5,a4,.L19
 325 0454 13972700 		slli	a4,a5,2
 326 0458 97070000 		lla	a5,.L23
 326      93870700 
 327 0460 B307F700 		add	a5,a4,a5
 328 0464 03A70700 		lw	a4,0(a5)
 329 0468 97070000 		lla	a5,.L23
 329      93870700 
 330 0470 B307F700 		add	a5,a4,a5
 331 0474 67800700 		jr	a5
 332              		.section	.rodata
 333              		.align	2
 334              		.align	2
 335              	.L23:
 336 0128 00000000 		.word	.L27-.L23
 337 012c 00000000 		.word	.L19-.L23
 338 0130 00000000 		.word	.L19-.L23
 339 0134 00000000 		.word	.L20-.L23
GAS LISTING main.s 			page 8


 340 0138 00000000 		.word	.L19-.L23
 341 013c 00000000 		.word	.L19-.L23
 342 0140 00000000 		.word	.L19-.L23
 343 0144 00000000 		.word	.L19-.L23
 344 0148 00000000 		.word	.L19-.L23
 345 014c 00000000 		.word	.L19-.L23
 346 0150 00000000 		.word	.L19-.L23
 347 0154 00000000 		.word	.L19-.L23
 348 0158 00000000 		.word	.L19-.L23
 349 015c 00000000 		.word	.L19-.L23
 350 0160 00000000 		.word	.L19-.L23
 351 0164 00000000 		.word	.L19-.L23
 352 0168 00000000 		.word	.L19-.L23
 353 016c 00000000 		.word	.L19-.L23
 354 0170 00000000 		.word	.L19-.L23
 355 0174 00000000 		.word	.L20-.L23
 356 0178 00000000 		.word	.L19-.L23
 357 017c 00000000 		.word	.L19-.L23
 358 0180 00000000 		.word	.L19-.L23
 359 0184 00000000 		.word	.L26-.L23
 360 0188 00000000 		.word	.L19-.L23
 361 018c 00000000 		.word	.L19-.L23
 362 0190 00000000 		.word	.L19-.L23
 363 0194 00000000 		.word	.L19-.L23
 364 0198 00000000 		.word	.L19-.L23
 365 019c 00000000 		.word	.L19-.L23
 366 01a0 00000000 		.word	.L19-.L23
 367 01a4 00000000 		.word	.L19-.L23
 368 01a8 00000000 		.word	.L19-.L23
 369 01ac 00000000 		.word	.L19-.L23
 370 01b0 00000000 		.word	.L19-.L23
 371 01b4 00000000 		.word	.L25-.L23
 372 01b8 00000000 		.word	.L19-.L23
 373 01bc 00000000 		.word	.L19-.L23
 374 01c0 00000000 		.word	.L19-.L23
 375 01c4 00000000 		.word	.L19-.L23
 376 01c8 00000000 		.word	.L19-.L23
 377 01cc 00000000 		.word	.L19-.L23
 378 01d0 00000000 		.word	.L19-.L23
 379 01d4 00000000 		.word	.L19-.L23
 380 01d8 00000000 		.word	.L19-.L23
 381 01dc 00000000 		.word	.L19-.L23
 382 01e0 00000000 		.word	.L19-.L23
 383 01e4 00000000 		.word	.L19-.L23
 384 01e8 00000000 		.word	.L19-.L23
 385 01ec 00000000 		.word	.L19-.L23
 386 01f0 00000000 		.word	.L19-.L23
 387 01f4 00000000 		.word	.L24-.L23
 388 01f8 00000000 		.word	.L19-.L23
 389 01fc 00000000 		.word	.L19-.L23
 390 0200 00000000 		.word	.L19-.L23
 391 0204 00000000 		.word	.L22-.L23
 392              		.text
 393              	.L21:
 394 0478 13073006 		li	a4,99
 395 047c 6384E706 		beq	a5,a4,.L28
 396 0480 6F004011 		j	.L19
GAS LISTING main.s 			page 9


 397              	.L24:
 398 0484 9307C4ED 		addi	a5,s0,-292
 399 0488 93860700 		mv	a3,a5
 400 048c 032684FC 		lw	a2,-56(s0)
 401 0490 832584FA 		lw	a1,-88(s0)
 402 0494 032504FA 		lw	a0,-96(s0)
 403 0498 97000000 		call	r_type@plt
 403      E7800000 
 404 04a0 6F00C012 		j	.L29
 405              	.L20:
 406 04a4 9307C4ED 		addi	a5,s0,-292
 407 04a8 93860700 		mv	a3,a5
 408 04ac 032684FC 		lw	a2,-56(s0)
 409 04b0 832584FA 		lw	a1,-88(s0)
 410 04b4 032504FA 		lw	a0,-96(s0)
 411 04b8 97000000 		call	i_type@plt
 411      E7800000 
 412 04c0 6F00C010 		j	.L29
 413              	.L25:
 414 04c4 9307C4ED 		addi	a5,s0,-292
 415 04c8 93860700 		mv	a3,a5
 416 04cc 032684FC 		lw	a2,-56(s0)
 417 04d0 832584FA 		lw	a1,-88(s0)
 418 04d4 032504FA 		lw	a0,-96(s0)
 419 04d8 97000000 		call	s_type@plt
 419      E7800000 
 420 04e0 6F00C00E 		j	.L29
 421              	.L28:
 422 04e4 9307C4ED 		addi	a5,s0,-292
 423 04e8 93860700 		mv	a3,a5
 424 04ec 032684FC 		lw	a2,-56(s0)
 425 04f0 832584FA 		lw	a1,-88(s0)
 426 04f4 032504FA 		lw	a0,-96(s0)
 427 04f8 97000000 		call	b_type@plt
 427      E7800000 
 428 0500 6F00C00C 		j	.L29
 429              	.L18:
 430 0504 9307C4ED 		addi	a5,s0,-292
 431 0508 93860700 		mv	a3,a5
 432 050c 032684FC 		lw	a2,-56(s0)
 433 0510 832584FA 		lw	a1,-88(s0)
 434 0514 032504FA 		lw	a0,-96(s0)
 435 0518 97000000 		call	j_type@plt
 435      E7800000 
 436 0520 6F00C00A 		j	.L29
 437              	.L22:
 438 0524 9307C4ED 		addi	a5,s0,-292
 439 0528 93860700 		mv	a3,a5
 440 052c 032684FC 		lw	a2,-56(s0)
 441 0530 832584FA 		lw	a1,-88(s0)
 442 0534 032504FA 		lw	a0,-96(s0)
 443 0538 97000000 		call	u_type@plt
 443      E7800000 
 444              	.L26:
 445 0540 9307C4ED 		addi	a5,s0,-292
 446 0544 93860700 		mv	a3,a5
 447 0548 032684FC 		lw	a2,-56(s0)
GAS LISTING main.s 			page 10


 448 054c 832584FA 		lw	a1,-88(s0)
 449 0550 032504FA 		lw	a0,-96(s0)
 450 0554 97000000 		call	u_type@plt
 450      E7800000 
 451 055c 6F000007 		j	.L29
 452              	.L27:
 453 0560 97070000 		la	a5,_impure_ptr
 453      83A70700 
 454 0568 83A70700 		lw	a5,0(a5)
 455 056c 83A7C700 		lw	a5,12(a5)
 456 0570 93860700 		mv	a3,a5
 457 0574 1306F000 		li	a2,15
 458 0578 93051000 		li	a1,1
 459 057c 17050000 		lla	a0,.LC12
 459      13050500 
 460 0584 97000000 		call	fwrite@plt
 460      E7800000 
 461 058c A30704FC 		sb	zero,-49(s0)
 462 0590 6F00C003 		j	.L29
 463              	.L19:
 464 0594 97070000 		la	a5,_impure_ptr
 464      83A70700 
 465 059c 83A70700 		lw	a5,0(a5)
 466 05a0 83A7C700 		lw	a5,12(a5)
 467 05a4 032744F8 		lw	a4,-124(s0)
 468 05a8 13060700 		mv	a2,a4
 469 05ac 97050000 		lla	a1,.LC13
 469      93850500 
 470 05b4 13850700 		mv	a0,a5
 471 05b8 97000000 		call	fprintf@plt
 471      E7800000 
 472 05c0 13051000 		li	a0,1
 473 05c4 97000000 		call	exit@plt
 473      E7800000 
 474              	.L29:
 475 05cc 832784FC 		lw	a5,-56(s0)
 476 05d0 93874700 		addi	a5,a5,4
 477 05d4 2324F4FC 		sw	a5,-56(s0)
 478              	.L17:
 479 05d8 8347F4FC 		lbu	a5,-49(s0)
 480 05dc E39607E2 		bne	a5,zero,.L30
 481 05e0 832584FA 		lw	a1,-88(s0)
 482 05e4 032504FA 		lw	a0,-96(s0)
 483 05e8 97000000 		call	printAllMem@plt
 483      E7800000 
 484 05f0 9307C4ED 		addi	a5,s0,-292
 485 05f4 13850700 		mv	a0,a5
 486 05f8 97000000 		call	printAllReg@plt
 486      E7800000 
 487 0600 93070000 		li	a5,0
 488              	.L13:
 489 0604 13810400 		mv	sp,s1
 490 0608 13850700 		mv	a0,a5
 491 060c 130104EC 		addi	sp,s0,-320
 492 0610 8320C113 		lw	ra,316(sp)
 493 0614 03248113 		lw	s0,312(sp)
 494 0618 83244113 		lw	s1,308(sp)
GAS LISTING main.s 			page 11


 495 061c 03290113 		lw	s2,304(sp)
 496 0620 8329C112 		lw	s3,300(sp)
 497 0624 032A8112 		lw	s4,296(sp)
 498 0628 832A4112 		lw	s5,292(sp)
 499 062c 032B0112 		lw	s6,288(sp)
 500 0630 832BC111 		lw	s7,284(sp)
 501 0634 032C8111 		lw	s8,280(sp)
 502 0638 832C4111 		lw	s9,276(sp)
 503 063c 13010114 		addi	sp,sp,320
 504 0640 67800000 		jr	ra
 506              		.align	2
 507              		.globl	printAllMem
 509              	printAllMem:
 510 0644 130101FE 		addi	sp,sp,-32
 511 0648 232E8100 		sw	s0,28(sp)
 512 064c 13040102 		addi	s0,sp,32
 513 0650 2326A4FE 		sw	a0,-20(s0)
 514 0654 2324B4FE 		sw	a1,-24(s0)
 515 0658 13000000 		nop
 516 065c 0324C101 		lw	s0,28(sp)
 517 0660 13010102 		addi	sp,sp,32
 518 0664 67800000 		jr	ra
 520              		.section	.rodata
 521              		.align	2
 522              	.LC14:
 523 0208 52656769 		.string	"Register: x%02d   Contents: "
 523      73746572 
 523      3A207825 
 523      30326420 
 523      2020436F 
 524 0225 000000   		.align	2
 525              	.LC15:
 526 0228 25303858 		.string	"%08X\n"
 526      0A00
 527              		.text
 528              		.align	2
 529              		.globl	printAllReg
 531              	printAllReg:
 532 0668 130101FD 		addi	sp,sp,-48
 533 066c 23261102 		sw	ra,44(sp)
 534 0670 23248102 		sw	s0,40(sp)
 535 0674 13040103 		addi	s0,sp,48
 536 0678 232EA4FC 		sw	a0,-36(s0)
 537 067c 232604FE 		sw	zero,-20(s0)
 538 0680 6F00C004 		j	.L35
 539              	.L36:
 540 0684 8325C4FE 		lw	a1,-20(s0)
 541 0688 17050000 		lla	a0,.LC14
 541      13050500 
 542 0690 97000000 		call	printf@plt
 542      E7800000 
 543 0698 8327C4FE 		lw	a5,-20(s0)
 544 069c 93972700 		slli	a5,a5,2
 545 06a0 0327C4FD 		lw	a4,-36(s0)
 546 06a4 B307F700 		add	a5,a4,a5
 547 06a8 83A70700 		lw	a5,0(a5)
 548 06ac 93850700 		mv	a1,a5
GAS LISTING main.s 			page 12


 549 06b0 17050000 		lla	a0,.LC15
 549      13050500 
 550 06b8 97000000 		call	printf@plt
 550      E7800000 
 551 06c0 8327C4FE 		lw	a5,-20(s0)
 552 06c4 93871700 		addi	a5,a5,1
 553 06c8 2326F4FE 		sw	a5,-20(s0)
 554              	.L35:
 555 06cc 0327C4FE 		lw	a4,-20(s0)
 556 06d0 9307F001 		li	a5,31
 557 06d4 E3D8E7FA 		ble	a4,a5,.L36
 558 06d8 13000000 		nop
 559 06dc 13000000 		nop
 560 06e0 8320C102 		lw	ra,44(sp)
 561 06e4 03248102 		lw	s0,40(sp)
 562 06e8 13010103 		addi	sp,sp,48
 563 06ec 67800000 		jr	ra
 565              		.align	2
 566              		.globl	readByte
 568              	readByte:
 569 06f0 130101FD 		addi	sp,sp,-48
 570 06f4 23268102 		sw	s0,44(sp)
 571 06f8 13040103 		addi	s0,sp,48
 572 06fc 232EA4FC 		sw	a0,-36(s0)
 573 0700 232CB4FC 		sw	a1,-40(s0)
 574 0704 232AC4FC 		sw	a2,-44(s0)
 575 0708 832744FD 		lw	a5,-44(s0)
 576 070c 13D7F741 		srai	a4,a5,31
 577 0710 13773700 		andi	a4,a4,3
 578 0714 B307F700 		add	a5,a4,a5
 579 0718 93D72740 		srai	a5,a5,2
 580 071c 2326F4FE 		sw	a5,-20(s0)
 581 0720 032744FD 		lw	a4,-44(s0)
 582 0724 9357F741 		srai	a5,a4,31
 583 0728 93D7E701 		srli	a5,a5,30
 584 072c 3307F700 		add	a4,a4,a5
 585 0730 13773700 		andi	a4,a4,3
 586 0734 B307F740 		sub	a5,a4,a5
 587 0738 2324F4FE 		sw	a5,-24(s0)
 588 073c 8327C4FE 		lw	a5,-20(s0)
 589 0740 93972700 		slli	a5,a5,2
 590 0744 0327C4FD 		lw	a4,-36(s0)
 591 0748 B307F700 		add	a5,a4,a5
 592 074c 83A70700 		lw	a5,0(a5)
 593 0750 2322F4FE 		sw	a5,-28(s0)
 594 0754 832784FE 		lw	a5,-24(s0)
 595 0758 93973700 		slli	a5,a5,3
 596 075c 032744FE 		lw	a4,-28(s0)
 597 0760 B357F700 		srl	a5,a4,a5
 598 0764 2322F4FE 		sw	a5,-28(s0)
 599 0768 832744FE 		lw	a5,-28(s0)
 600 076c 93F7F70F 		andi	a5,a5,255
 601 0770 2320F4FE 		sw	a5,-32(s0)
 602 0774 832704FE 		lw	a5,-32(s0)
 603 0778 13850700 		mv	a0,a5
 604 077c 0324C102 		lw	s0,44(sp)
 605 0780 13010103 		addi	sp,sp,48
GAS LISTING main.s 			page 13


 606 0784 67800000 		jr	ra
 608              		.section	.rodata
 609 022e 0000     		.align	2
 610              	.LC16:
 611 0230 4D697361 		.string	"Misaligned reference at 0x%08d\n"
 611      6C69676E 
 611      65642072 
 611      65666572 
 611      656E6365 
 612              		.text
 613              		.align	2
 614              		.globl	readHalfWord
 616              	readHalfWord:
 617 0788 130101FD 		addi	sp,sp,-48
 618 078c 23261102 		sw	ra,44(sp)
 619 0790 23248102 		sw	s0,40(sp)
 620 0794 13040103 		addi	s0,sp,48
 621 0798 232EA4FC 		sw	a0,-36(s0)
 622 079c 232CB4FC 		sw	a1,-40(s0)
 623 07a0 232AC4FC 		sw	a2,-44(s0)
 624 07a4 832744FD 		lw	a5,-44(s0)
 625 07a8 93F71700 		andi	a5,a5,1
 626 07ac 638C0702 		beq	a5,zero,.L40
 627 07b0 97070000 		la	a5,_impure_ptr
 627      83A70700 
 628 07b8 83A70700 		lw	a5,0(a5)
 629 07bc 83A7C700 		lw	a5,12(a5)
 630 07c0 032644FD 		lw	a2,-44(s0)
 631 07c4 97050000 		lla	a1,.LC16
 631      93850500 
 632 07cc 13850700 		mv	a0,a5
 633 07d0 97000000 		call	fprintf@plt
 633      E7800000 
 634 07d8 13051000 		li	a0,1
 635 07dc 97000000 		call	exit@plt
 635      E7800000 
 636              	.L40:
 637 07e4 832744FD 		lw	a5,-44(s0)
 638 07e8 13D7F741 		srai	a4,a5,31
 639 07ec 13773700 		andi	a4,a4,3
 640 07f0 B307F700 		add	a5,a4,a5
 641 07f4 93D72740 		srai	a5,a5,2
 642 07f8 2324F4FE 		sw	a5,-24(s0)
 643 07fc 032744FD 		lw	a4,-44(s0)
 644 0800 9357F741 		srai	a5,a4,31
 645 0804 93D7E701 		srli	a5,a5,30
 646 0808 3307F700 		add	a4,a4,a5
 647 080c 13773700 		andi	a4,a4,3
 648 0810 B307F740 		sub	a5,a4,a5
 649 0814 13870700 		mv	a4,a5
 650 0818 93072000 		li	a5,2
 651 081c 6318F700 		bne	a4,a5,.L41
 652 0820 93072000 		li	a5,2
 653 0824 2326F4FE 		sw	a5,-20(s0)
 654 0828 6F008000 		j	.L42
 655              	.L41:
 656 082c 232604FE 		sw	zero,-20(s0)
GAS LISTING main.s 			page 14


 657              	.L42:
 658 0830 832784FE 		lw	a5,-24(s0)
 659 0834 93972700 		slli	a5,a5,2
 660 0838 0327C4FD 		lw	a4,-36(s0)
 661 083c B307F700 		add	a5,a4,a5
 662 0840 83A70700 		lw	a5,0(a5)
 663 0844 2322F4FE 		sw	a5,-28(s0)
 664 0848 8327C4FE 		lw	a5,-20(s0)
 665 084c 93973700 		slli	a5,a5,3
 666 0850 032744FE 		lw	a4,-28(s0)
 667 0854 B357F700 		srl	a5,a4,a5
 668 0858 2322F4FE 		sw	a5,-28(s0)
 669 085c 032744FE 		lw	a4,-28(s0)
 670 0860 B7070100 		li	a5,65536
 671 0864 9387F7FF 		addi	a5,a5,-1
 672 0868 B377F700 		and	a5,a4,a5
 673 086c 2320F4FE 		sw	a5,-32(s0)
 674 0870 832704FE 		lw	a5,-32(s0)
 675 0874 13850700 		mv	a0,a5
 676 0878 8320C102 		lw	ra,44(sp)
 677 087c 03248102 		lw	s0,40(sp)
 678 0880 13010103 		addi	sp,sp,48
 679 0884 67800000 		jr	ra
 681              		.align	2
 682              		.globl	readWord
 684              	readWord:
 685 0888 130101FD 		addi	sp,sp,-48
 686 088c 23268102 		sw	s0,44(sp)
 687 0890 13040103 		addi	s0,sp,48
 688 0894 232EA4FC 		sw	a0,-36(s0)
 689 0898 232CB4FC 		sw	a1,-40(s0)
 690 089c 232AC4FC 		sw	a2,-44(s0)
 691 08a0 832744FD 		lw	a5,-44(s0)
 692 08a4 13D7F741 		srai	a4,a5,31
 693 08a8 13773700 		andi	a4,a4,3
 694 08ac B307F700 		add	a5,a4,a5
 695 08b0 93D72740 		srai	a5,a5,2
 696 08b4 2326F4FE 		sw	a5,-20(s0)
 697 08b8 8327C4FE 		lw	a5,-20(s0)
 698 08bc 93972700 		slli	a5,a5,2
 699 08c0 0327C4FD 		lw	a4,-36(s0)
 700 08c4 B307F700 		add	a5,a4,a5
 701 08c8 83A70700 		lw	a5,0(a5)
 702 08cc 2324F4FE 		sw	a5,-24(s0)
 703 08d0 832784FE 		lw	a5,-24(s0)
 704 08d4 13850700 		mv	a0,a5
 705 08d8 0324C102 		lw	s0,44(sp)
 706 08dc 13010103 		addi	sp,sp,48
 707 08e0 67800000 		jr	ra
 709              		.align	2
 710              		.globl	writeByte
 712              	writeByte:
 713 08e4 130101FD 		addi	sp,sp,-48
 714 08e8 23268102 		sw	s0,44(sp)
 715 08ec 13040103 		addi	s0,sp,48
 716 08f0 232EA4FC 		sw	a0,-36(s0)
 717 08f4 232CB4FC 		sw	a1,-40(s0)
GAS LISTING main.s 			page 15


 718 08f8 232AC4FC 		sw	a2,-44(s0)
 719 08fc 2328D4FC 		sw	a3,-48(s0)
 720 0900 832744FD 		lw	a5,-44(s0)
 721 0904 13D7F741 		srai	a4,a5,31
 722 0908 13773700 		andi	a4,a4,3
 723 090c B307F700 		add	a5,a4,a5
 724 0910 93D72740 		srai	a5,a5,2
 725 0914 2326F4FE 		sw	a5,-20(s0)
 726 0918 032744FD 		lw	a4,-44(s0)
 727 091c 9357F741 		srai	a5,a4,31
 728 0920 93D7E701 		srli	a5,a5,30
 729 0924 3307F700 		add	a4,a4,a5
 730 0928 13773700 		andi	a4,a4,3
 731 092c B307F740 		sub	a5,a4,a5
 732 0930 2324F4FE 		sw	a5,-24(s0)
 733 0934 8327C4FE 		lw	a5,-20(s0)
 734 0938 93972700 		slli	a5,a5,2
 735 093c 0327C4FD 		lw	a4,-36(s0)
 736 0940 B307F700 		add	a5,a4,a5
 737 0944 03A70700 		lw	a4,0(a5)
 738 0948 832784FE 		lw	a5,-24(s0)
 739 094c 93973700 		slli	a5,a5,3
 740 0950 9306F00F 		li	a3,255
 741 0954 B397F600 		sll	a5,a3,a5
 742 0958 93C7F7FF 		not	a5,a5
 743 095c 13860700 		mv	a2,a5
 744 0960 8327C4FE 		lw	a5,-20(s0)
 745 0964 93972700 		slli	a5,a5,2
 746 0968 8326C4FD 		lw	a3,-36(s0)
 747 096c B387F600 		add	a5,a3,a5
 748 0970 3377C700 		and	a4,a4,a2
 749 0974 23A0E700 		sw	a4,0(a5)
 750 0978 8327C4FE 		lw	a5,-20(s0)
 751 097c 93972700 		slli	a5,a5,2
 752 0980 0327C4FD 		lw	a4,-36(s0)
 753 0984 B307F700 		add	a5,a4,a5
 754 0988 83A60700 		lw	a3,0(a5)
 755 098c 832784FE 		lw	a5,-24(s0)
 756 0990 93973700 		slli	a5,a5,3
 757 0994 032704FD 		lw	a4,-48(s0)
 758 0998 3317F700 		sll	a4,a4,a5
 759 099c 8327C4FE 		lw	a5,-20(s0)
 760 09a0 93972700 		slli	a5,a5,2
 761 09a4 0326C4FD 		lw	a2,-36(s0)
 762 09a8 B307F600 		add	a5,a2,a5
 763 09ac 33E7E600 		or	a4,a3,a4
 764 09b0 23A0E700 		sw	a4,0(a5)
 765 09b4 93070000 		li	a5,0
 766 09b8 13850700 		mv	a0,a5
 767 09bc 0324C102 		lw	s0,44(sp)
 768 09c0 13010103 		addi	sp,sp,48
 769 09c4 67800000 		jr	ra
 771              		.align	2
 772              		.globl	writeHalfWord
 774              	writeHalfWord:
 775 09c8 130101FD 		addi	sp,sp,-48
 776 09cc 23261102 		sw	ra,44(sp)
GAS LISTING main.s 			page 16


 777 09d0 23248102 		sw	s0,40(sp)
 778 09d4 13040103 		addi	s0,sp,48
 779 09d8 232EA4FC 		sw	a0,-36(s0)
 780 09dc 232CB4FC 		sw	a1,-40(s0)
 781 09e0 232AC4FC 		sw	a2,-44(s0)
 782 09e4 2328D4FC 		sw	a3,-48(s0)
 783 09e8 832744FD 		lw	a5,-44(s0)
 784 09ec 93F71700 		andi	a5,a5,1
 785 09f0 638C0702 		beq	a5,zero,.L49
 786 09f4 97070000 		la	a5,_impure_ptr
 786      83A70700 
 787 09fc 83A70700 		lw	a5,0(a5)
 788 0a00 83A7C700 		lw	a5,12(a5)
 789 0a04 032644FD 		lw	a2,-44(s0)
 790 0a08 97050000 		lla	a1,.LC16
 790      93850500 
 791 0a10 13850700 		mv	a0,a5
 792 0a14 97000000 		call	fprintf@plt
 792      E7800000 
 793 0a1c 13051000 		li	a0,1
 794 0a20 97000000 		call	exit@plt
 794      E7800000 
 795              	.L49:
 796 0a28 832744FD 		lw	a5,-44(s0)
 797 0a2c 13D7F741 		srai	a4,a5,31
 798 0a30 13773700 		andi	a4,a4,3
 799 0a34 B307F700 		add	a5,a4,a5
 800 0a38 93D72740 		srai	a5,a5,2
 801 0a3c 2326F4FE 		sw	a5,-20(s0)
 802 0a40 032744FD 		lw	a4,-44(s0)
 803 0a44 9357F741 		srai	a5,a4,31
 804 0a48 93D7E701 		srli	a5,a5,30
 805 0a4c 3307F700 		add	a4,a4,a5
 806 0a50 13773700 		andi	a4,a4,3
 807 0a54 B307F740 		sub	a5,a4,a5
 808 0a58 13870700 		mv	a4,a5
 809 0a5c 93072000 		li	a5,2
 810 0a60 6314F706 		bne	a4,a5,.L50
 811 0a64 93072000 		li	a5,2
 812 0a68 2324F4FE 		sw	a5,-24(s0)
 813 0a6c 8327C4FE 		lw	a5,-20(s0)
 814 0a70 93972700 		slli	a5,a5,2
 815 0a74 0327C4FD 		lw	a4,-36(s0)
 816 0a78 B307F700 		add	a5,a4,a5
 817 0a7c 83A70700 		lw	a5,0(a5)
 818 0a80 2320F4FE 		sw	a5,-32(s0)
 819 0a84 032704FE 		lw	a4,-32(s0)
 820 0a88 B7070100 		li	a5,65536
 821 0a8c 9387F7FF 		addi	a5,a5,-1
 822 0a90 B377F700 		and	a5,a4,a5
 823 0a94 2320F4FE 		sw	a5,-32(s0)
 824 0a98 832704FD 		lw	a5,-48(s0)
 825 0a9c 93970701 		slli	a5,a5,16
 826 0aa0 2328F4FC 		sw	a5,-48(s0)
 827 0aa4 8327C4FE 		lw	a5,-20(s0)
 828 0aa8 93972700 		slli	a5,a5,2
 829 0aac 0327C4FD 		lw	a4,-36(s0)
GAS LISTING main.s 			page 17


 830 0ab0 B307F700 		add	a5,a4,a5
 831 0ab4 832604FD 		lw	a3,-48(s0)
 832 0ab8 032704FE 		lw	a4,-32(s0)
 833 0abc 33E7E600 		or	a4,a3,a4
 834 0ac0 23A0E700 		sw	a4,0(a5)
 835 0ac4 6F000005 		j	.L51
 836              	.L50:
 837 0ac8 232404FE 		sw	zero,-24(s0)
 838 0acc 8327C4FE 		lw	a5,-20(s0)
 839 0ad0 93972700 		slli	a5,a5,2
 840 0ad4 0327C4FD 		lw	a4,-36(s0)
 841 0ad8 B307F700 		add	a5,a4,a5
 842 0adc 83A70700 		lw	a5,0(a5)
 843 0ae0 2322F4FE 		sw	a5,-28(s0)
 844 0ae4 032744FE 		lw	a4,-28(s0)
 845 0ae8 B707FFFF 		li	a5,-65536
 846 0aec B377F700 		and	a5,a4,a5
 847 0af0 2322F4FE 		sw	a5,-28(s0)
 848 0af4 8327C4FE 		lw	a5,-20(s0)
 849 0af8 93972700 		slli	a5,a5,2
 850 0afc 0327C4FD 		lw	a4,-36(s0)
 851 0b00 B307F700 		add	a5,a4,a5
 852 0b04 832604FD 		lw	a3,-48(s0)
 853 0b08 032744FE 		lw	a4,-28(s0)
 854 0b0c 33E7E600 		or	a4,a3,a4
 855 0b10 23A0E700 		sw	a4,0(a5)
 856              	.L51:
 857 0b14 93070000 		li	a5,0
 858 0b18 13850700 		mv	a0,a5
 859 0b1c 8320C102 		lw	ra,44(sp)
 860 0b20 03248102 		lw	s0,40(sp)
 861 0b24 13010103 		addi	sp,sp,48
 862 0b28 67800000 		jr	ra
 864              		.align	2
 865              		.globl	writeWord
 867              	writeWord:
 868 0b2c 130101FD 		addi	sp,sp,-48
 869 0b30 23268102 		sw	s0,44(sp)
 870 0b34 13040103 		addi	s0,sp,48
 871 0b38 232EA4FC 		sw	a0,-36(s0)
 872 0b3c 232CB4FC 		sw	a1,-40(s0)
 873 0b40 232AC4FC 		sw	a2,-44(s0)
 874 0b44 2328D4FC 		sw	a3,-48(s0)
 875 0b48 832744FD 		lw	a5,-44(s0)
 876 0b4c 13D7F741 		srai	a4,a5,31
 877 0b50 13773700 		andi	a4,a4,3
 878 0b54 B307F700 		add	a5,a4,a5
 879 0b58 93D72740 		srai	a5,a5,2
 880 0b5c 2326F4FE 		sw	a5,-20(s0)
 881 0b60 8327C4FE 		lw	a5,-20(s0)
 882 0b64 93972700 		slli	a5,a5,2
 883 0b68 0327C4FD 		lw	a4,-36(s0)
 884 0b6c B307F700 		add	a5,a4,a5
 885 0b70 032704FD 		lw	a4,-48(s0)
 886 0b74 23A0E700 		sw	a4,0(a5)
 887 0b78 93070000 		li	a5,0
 888 0b7c 13850700 		mv	a0,a5
GAS LISTING main.s 			page 18


 889 0b80 0324C102 		lw	s0,44(sp)
 890 0b84 13010103 		addi	sp,sp,48
 891 0b88 67800000 		jr	ra
 893              		.align	2
 894              		.globl	fetch_and_decode
 896              	fetch_and_decode:
 897 0b8c 130101FD 		addi	sp,sp,-48
 898 0b90 23268102 		sw	s0,44(sp)
 899 0b94 13040103 		addi	s0,sp,48
 900 0b98 232EA4FC 		sw	a0,-36(s0)
 901 0b9c 232CB4FC 		sw	a1,-40(s0)
 902 0ba0 232AC4FC 		sw	a2,-44(s0)
 903 0ba4 832784FD 		lw	a5,-40(s0)
 904 0ba8 93F7C7FF 		andi	a5,a5,-4
 905 0bac 0327C4FD 		lw	a4,-36(s0)
 906 0bb0 B307F700 		add	a5,a4,a5
 907 0bb4 83A70700 		lw	a5,0(a5)
 908 0bb8 2326F4FE 		sw	a5,-20(s0)
 909 0bbc 8327C4FE 		lw	a5,-20(s0)
 910 0bc0 13F7F707 		andi	a4,a5,127
 911 0bc4 832744FD 		lw	a5,-44(s0)
 912 0bc8 23A0E700 		sw	a4,0(a5)
 913 0bcc 13000000 		nop
 914 0bd0 0324C102 		lw	s0,44(sp)
 915 0bd4 13010103 		addi	sp,sp,48
 916 0bd8 67800000 		jr	ra
 918              		.align	2
 919              		.globl	r_type
 921              	r_type:
 922 0bdc 130101FD 		addi	sp,sp,-48
 923 0be0 23268102 		sw	s0,44(sp)
 924 0be4 13040103 		addi	s0,sp,48
 925 0be8 232EA4FC 		sw	a0,-36(s0)
 926 0bec 232CB4FC 		sw	a1,-40(s0)
 927 0bf0 232AC4FC 		sw	a2,-44(s0)
 928 0bf4 2328D4FC 		sw	a3,-48(s0)
 929 0bf8 832744FD 		lw	a5,-44(s0)
 930 0bfc 93F7C7FF 		andi	a5,a5,-4
 931 0c00 0327C4FD 		lw	a4,-36(s0)
 932 0c04 B307F700 		add	a5,a4,a5
 933 0c08 83A70700 		lw	a5,0(a5)
 934 0c0c 2326F4FE 		sw	a5,-20(s0)
 935 0c10 8327C4FE 		lw	a5,-20(s0)
 936 0c14 93F7F70F 		andi	a5,a5,0xff
 937 0c18 93F7F707 		andi	a5,a5,127
 938 0c1c A305F4FE 		sb	a5,-21(s0)
 939 0c20 8327C4FE 		lw	a5,-20(s0)
 940 0c24 93D77700 		srli	a5,a5,7
 941 0c28 93F7F70F 		andi	a5,a5,0xff
 942 0c2c 93F7F701 		andi	a5,a5,31
 943 0c30 2305F4FE 		sb	a5,-22(s0)
 944 0c34 8327C4FE 		lw	a5,-20(s0)
 945 0c38 93D7C700 		srli	a5,a5,12
 946 0c3c 93F7F70F 		andi	a5,a5,0xff
 947 0c40 93F77700 		andi	a5,a5,7
 948 0c44 A304F4FE 		sb	a5,-23(s0)
 949 0c48 8327C4FE 		lw	a5,-20(s0)
GAS LISTING main.s 			page 19


 950 0c4c 93D7F700 		srli	a5,a5,15
 951 0c50 93F7F70F 		andi	a5,a5,0xff
 952 0c54 93F7F701 		andi	a5,a5,31
 953 0c58 2304F4FE 		sb	a5,-24(s0)
 954 0c5c 8327C4FE 		lw	a5,-20(s0)
 955 0c60 93D74701 		srli	a5,a5,20
 956 0c64 93F7F70F 		andi	a5,a5,0xff
 957 0c68 93F7F701 		andi	a5,a5,31
 958 0c6c A303F4FE 		sb	a5,-25(s0)
 959 0c70 8327C4FE 		lw	a5,-20(s0)
 960 0c74 93D79701 		srli	a5,a5,25
 961 0c78 2303F4FE 		sb	a5,-26(s0)
 962 0c7c 13000000 		nop
 963 0c80 0324C102 		lw	s0,44(sp)
 964 0c84 13010103 		addi	sp,sp,48
 965 0c88 67800000 		jr	ra
 967              		.section	.rodata
 968              		.align	2
 969              	.LC17:
 970 0250 30782530 		.string	"0x%02X is not a valid I-type opcode.\n"
 970      32582069 
 970      73206E6F 
 970      74206120 
 970      76616C69 
 971              		.text
 972              		.align	2
 973              		.globl	i_type
 975              	i_type:
 976 0c8c 130101FD 		addi	sp,sp,-48
 977 0c90 23261102 		sw	ra,44(sp)
 978 0c94 23248102 		sw	s0,40(sp)
 979 0c98 13040103 		addi	s0,sp,48
 980 0c9c 232EA4FC 		sw	a0,-36(s0)
 981 0ca0 232CB4FC 		sw	a1,-40(s0)
 982 0ca4 232AC4FC 		sw	a2,-44(s0)
 983 0ca8 2328D4FC 		sw	a3,-48(s0)
 984 0cac 832744FD 		lw	a5,-44(s0)
 985 0cb0 93F7C7FF 		andi	a5,a5,-4
 986 0cb4 0327C4FD 		lw	a4,-36(s0)
 987 0cb8 B307F700 		add	a5,a4,a5
 988 0cbc 83A70700 		lw	a5,0(a5)
 989 0cc0 2324F4FE 		sw	a5,-24(s0)
 990 0cc4 832784FE 		lw	a5,-24(s0)
 991 0cc8 93F7F70F 		andi	a5,a5,0xff
 992 0ccc 93F7F707 		andi	a5,a5,127
 993 0cd0 A303F4FE 		sb	a5,-25(s0)
 994 0cd4 832784FE 		lw	a5,-24(s0)
 995 0cd8 93D77700 		srli	a5,a5,7
 996 0cdc 93F7F70F 		andi	a5,a5,0xff
 997 0ce0 93F7F701 		andi	a5,a5,31
 998 0ce4 2303F4FE 		sb	a5,-26(s0)
 999 0ce8 832784FE 		lw	a5,-24(s0)
 1000 0cec 93D7C700 		srli	a5,a5,12
 1001 0cf0 93F7F70F 		andi	a5,a5,0xff
 1002 0cf4 93F77700 		andi	a5,a5,7
 1003 0cf8 A302F4FE 		sb	a5,-27(s0)
 1004 0cfc 832784FE 		lw	a5,-24(s0)
GAS LISTING main.s 			page 20


 1005 0d00 93D7F700 		srli	a5,a5,15
 1006 0d04 93F7F70F 		andi	a5,a5,0xff
 1007 0d08 93F7F701 		andi	a5,a5,31
 1008 0d0c 2302F4FE 		sb	a5,-28(s0)
 1009 0d10 832784FE 		lw	a5,-24(s0)
 1010 0d14 93D74701 		srli	a5,a5,20
 1011 0d18 2317F4FE 		sh	a5,-18(s0)
 1012 0d1c 8317E4FE 		lh	a5,-18(s0)
 1013 0d20 93D7B740 		srai	a5,a5,11
 1014 0d24 93970701 		slli	a5,a5,16
 1015 0d28 93D70741 		srai	a5,a5,16
 1016 0d2c 93970701 		slli	a5,a5,16
 1017 0d30 93D70701 		srli	a5,a5,16
 1018 0d34 93F71700 		andi	a5,a5,1
 1019 0d38 2320F4FE 		sw	a5,-32(s0)
 1020 0d3c 032704FE 		lw	a4,-32(s0)
 1021 0d40 93071000 		li	a5,1
 1022 0d44 6310F702 		bne	a4,a5,.L60
 1023 0d48 0357E4FE 		lhu	a4,-18(s0)
 1024 0d4c B7F7FFFF 		li	a5,-4096
 1025 0d50 B367F700 		or	a5,a4,a5
 1026 0d54 93970701 		slli	a5,a5,16
 1027 0d58 93D70701 		srli	a5,a5,16
 1028 0d5c 2317F4FE 		sh	a5,-18(s0)
 1029 0d60 6F008001 		j	.L61
 1030              	.L60:
 1031 0d64 0357E4FE 		lhu	a4,-18(s0)
 1032 0d68 B7170000 		li	a5,4096
 1033 0d6c 9387F7FF 		addi	a5,a5,-1
 1034 0d70 B377F700 		and	a5,a4,a5
 1035 0d74 2317F4FE 		sh	a5,-18(s0)
 1036              	.L61:
 1037 0d78 834774FE 		lbu	a5,-25(s0)
 1038 0d7c 13077006 		li	a4,103
 1039 0d80 6380E708 		beq	a5,a4,.L68
 1040 0d84 13077006 		li	a4,103
 1041 0d88 6340F704 		bgt	a5,a4,.L63
 1042 0d8c 13073000 		li	a4,3
 1043 0d90 6388E700 		beq	a5,a4,.L64
 1044 0d94 13073001 		li	a4,19
 1045 0d98 6388E706 		beq	a5,a4,.L69
 1046 0d9c 6F00C002 		j	.L63
 1047              	.L64:
 1048 0da0 8356E4FE 		lhu	a3,-18(s0)
 1049 0da4 034644FE 		lbu	a2,-28(s0)
 1050 0da8 834564FE 		lbu	a1,-26(s0)
 1051 0dac 034554FE 		lbu	a0,-27(s0)
 1052 0db0 032804FD 		lw	a6,-48(s0)
 1053 0db4 832784FD 		lw	a5,-40(s0)
 1054 0db8 0327C4FD 		lw	a4,-36(s0)
 1055 0dbc 97000000 		call	load@plt
 1055      E7800000 
 1056 0dc4 6F008004 		j	.L66
 1057              	.L63:
 1058 0dc8 97070000 		la	a5,_impure_ptr
 1058      83A70700 
 1059 0dd0 83A70700 		lw	a5,0(a5)
GAS LISTING main.s 			page 21


 1060 0dd4 83A7C700 		lw	a5,12(a5)
 1061 0dd8 034774FE 		lbu	a4,-25(s0)
 1062 0ddc 13060700 		mv	a2,a4
 1063 0de0 97050000 		lla	a1,.LC17
 1063      93850500 
 1064 0de8 13850700 		mv	a0,a5
 1065 0dec 97000000 		call	fprintf@plt
 1065      E7800000 
 1066 0df4 13051000 		li	a0,1
 1067 0df8 97000000 		call	exit@plt
 1067      E7800000 
 1068              	.L68:
 1069 0e00 13000000 		nop
 1070 0e04 6F008000 		j	.L66
 1071              	.L69:
 1072 0e08 13000000 		nop
 1073              	.L66:
 1074 0e0c 13000000 		nop
 1075 0e10 8320C102 		lw	ra,44(sp)
 1076 0e14 03248102 		lw	s0,40(sp)
 1077 0e18 13010103 		addi	sp,sp,48
 1078 0e1c 67800000 		jr	ra
 1080              		.align	2
 1081              		.globl	immediateop
 1083              	immediateop:
 1084 0e20 130101FD 		addi	sp,sp,-48
 1085 0e24 23268102 		sw	s0,44(sp)
 1086 0e28 13040103 		addi	s0,sp,48
 1087 0e2c 2322E4FE 		sw	a4,-28(s0)
 1088 0e30 2320F4FE 		sw	a5,-32(s0)
 1089 0e34 232E04FD 		sw	a6,-36(s0)
 1090 0e38 93070500 		mv	a5,a0
 1091 0e3c A307F4FE 		sb	a5,-17(s0)
 1092 0e40 93870500 		mv	a5,a1
 1093 0e44 2307F4FE 		sb	a5,-18(s0)
 1094 0e48 93070600 		mv	a5,a2
 1095 0e4c A306F4FE 		sb	a5,-19(s0)
 1096 0e50 93870600 		mv	a5,a3
 1097 0e54 2315F4FE 		sh	a5,-22(s0)
 1098 0e58 8347F4FE 		lbu	a5,-17(s0)
 1099 0e5c 13077000 		li	a4,7
 1100 0e60 6364F702 		bgtu	a5,a4,.L82
 1101 0e64 13972700 		slli	a4,a5,2
 1102 0e68 97070000 		lla	a5,.L73
 1102      93870700 
 1103 0e70 B307F700 		add	a5,a4,a5
 1104 0e74 03A70700 		lw	a4,0(a5)
 1105 0e78 97070000 		lla	a5,.L73
 1105      93870700 
 1106 0e80 B307F700 		add	a5,a4,a5
 1107 0e84 67800700 		jr	a5
 1108              		.section	.rodata
 1109 0276 0000     		.align	2
 1110              		.align	2
 1111              	.L73:
 1112 0278 00000000 		.word	.L83-.L73
 1113 027c 00000000 		.word	.L83-.L73
GAS LISTING main.s 			page 22


 1114 0280 00000000 		.word	.L83-.L73
 1115 0284 00000000 		.word	.L83-.L73
 1116 0288 00000000 		.word	.L83-.L73
 1117 028c 00000000 		.word	.L83-.L73
 1118 0290 00000000 		.word	.L83-.L73
 1119 0294 00000000 		.word	.L83-.L73
 1120              		.text
 1121              	.L82:
 1122 0e88 13000000 		nop
 1123 0e8c 6F008000 		j	.L84
 1124              	.L83:
 1125 0e90 13000000 		nop
 1126              	.L84:
 1127 0e94 13000000 		nop
 1128 0e98 0324C102 		lw	s0,44(sp)
 1129 0e9c 13010103 		addi	sp,sp,48
 1130 0ea0 67800000 		jr	ra
 1132              		.section	.rodata
 1133              		.align	2
 1134              	.LC18:
 1135 0298 54686520 		.string	"The provided load instruction is invalid."
 1135      70726F76 
 1135      69646564 
 1135      206C6F61 
 1135      6420696E 
 1136              		.text
 1137              		.align	2
 1138              		.globl	load
 1140              	load:
 1141 0ea4 130101FC 		addi	sp,sp,-64
 1142 0ea8 232E1102 		sw	ra,60(sp)
 1143 0eac 232C8102 		sw	s0,56(sp)
 1144 0eb0 13040104 		addi	s0,sp,64
 1145 0eb4 232AE4FC 		sw	a4,-44(s0)
 1146 0eb8 2328F4FC 		sw	a5,-48(s0)
 1147 0ebc 232604FD 		sw	a6,-52(s0)
 1148 0ec0 93070500 		mv	a5,a0
 1149 0ec4 A30FF4FC 		sb	a5,-33(s0)
 1150 0ec8 93870500 		mv	a5,a1
 1151 0ecc 230FF4FC 		sb	a5,-34(s0)
 1152 0ed0 93070600 		mv	a5,a2
 1153 0ed4 A30EF4FC 		sb	a5,-35(s0)
 1154 0ed8 93870600 		mv	a5,a3
 1155 0edc 231DF4FC 		sh	a5,-38(s0)
 1156 0ee0 8347F4FD 		lbu	a5,-33(s0)
 1157 0ee4 13075000 		li	a4,5
 1158 0ee8 6362F724 		bgtu	a5,a4,.L86
 1159 0eec 13972700 		slli	a4,a5,2
 1160 0ef0 97070000 		lla	a5,.L88
 1160      93870700 
 1161 0ef8 B307F700 		add	a5,a4,a5
 1162 0efc 03A70700 		lw	a4,0(a5)
 1163 0f00 97070000 		lla	a5,.L88
 1163      93870700 
 1164 0f08 B307F700 		add	a5,a4,a5
 1165 0f0c 67800700 		jr	a5
 1166              		.section	.rodata
GAS LISTING main.s 			page 23


 1167 02c2 0000     		.align	2
 1168              		.align	2
 1169              	.L88:
 1170 02c4 00000000 		.word	.L92-.L88
 1171 02c8 00000000 		.word	.L91-.L88
 1172 02cc 00000000 		.word	.L90-.L88
 1173 02d0 00000000 		.word	.L86-.L88
 1174 02d4 00000000 		.word	.L89-.L88
 1175 02d8 00000000 		.word	.L87-.L88
 1176              		.text
 1177              	.L92:
 1178 0f10 8347D4FD 		lbu	a5,-35(s0)
 1179 0f14 93972700 		slli	a5,a5,2
 1180 0f18 0327C4FC 		lw	a4,-52(s0)
 1181 0f1c B307F700 		add	a5,a4,a5
 1182 0f20 03A70700 		lw	a4,0(a5)
 1183 0f24 8357A4FD 		lhu	a5,-38(s0)
 1184 0f28 B307F700 		add	a5,a4,a5
 1185 0f2c 13860700 		mv	a2,a5
 1186 0f30 832504FD 		lw	a1,-48(s0)
 1187 0f34 032544FD 		lw	a0,-44(s0)
 1188 0f38 97000000 		call	readByte@plt
 1188      E7800000 
 1189 0f40 2326A4FE 		sw	a0,-20(s0)
 1190 0f44 8327C4FE 		lw	a5,-20(s0)
 1191 0f48 93D77700 		srli	a5,a5,7
 1192 0f4c 93F71700 		andi	a5,a5,1
 1193 0f50 2324F4FE 		sw	a5,-24(s0)
 1194 0f54 032784FE 		lw	a4,-24(s0)
 1195 0f58 93071000 		li	a5,1
 1196 0f5c 631AF700 		bne	a4,a5,.L93
 1197 0f60 8327C4FE 		lw	a5,-20(s0)
 1198 0f64 93E707F0 		ori	a5,a5,-256
 1199 0f68 2326F4FE 		sw	a5,-20(s0)
 1200 0f6c 6F000001 		j	.L94
 1201              	.L93:
 1202 0f70 8327C4FE 		lw	a5,-20(s0)
 1203 0f74 93F7F70F 		andi	a5,a5,255
 1204 0f78 2326F4FE 		sw	a5,-20(s0)
 1205              	.L94:
 1206 0f7c 8347E4FD 		lbu	a5,-34(s0)
 1207 0f80 93972700 		slli	a5,a5,2
 1208 0f84 0327C4FC 		lw	a4,-52(s0)
 1209 0f88 B307F700 		add	a5,a4,a5
 1210 0f8c 0327C4FE 		lw	a4,-20(s0)
 1211 0f90 23A0E700 		sw	a4,0(a5)
 1212 0f94 6F00401B 		j	.L95
 1213              	.L91:
 1214 0f98 8347D4FD 		lbu	a5,-35(s0)
 1215 0f9c 93972700 		slli	a5,a5,2
 1216 0fa0 0327C4FC 		lw	a4,-52(s0)
 1217 0fa4 B307F700 		add	a5,a4,a5
 1218 0fa8 03A70700 		lw	a4,0(a5)
 1219 0fac 8357A4FD 		lhu	a5,-38(s0)
 1220 0fb0 B307F700 		add	a5,a4,a5
 1221 0fb4 13860700 		mv	a2,a5
 1222 0fb8 832504FD 		lw	a1,-48(s0)
GAS LISTING main.s 			page 24


 1223 0fbc 032544FD 		lw	a0,-44(s0)
 1224 0fc0 97000000 		call	readHalfWord@plt
 1224      E7800000 
 1225 0fc8 2326A4FE 		sw	a0,-20(s0)
 1226 0fcc 8327C4FE 		lw	a5,-20(s0)
 1227 0fd0 93D7F700 		srli	a5,a5,15
 1228 0fd4 93F71700 		andi	a5,a5,1
 1229 0fd8 2324F4FE 		sw	a5,-24(s0)
 1230 0fdc 032784FE 		lw	a4,-24(s0)
 1231 0fe0 93071000 		li	a5,1
 1232 0fe4 631CF700 		bne	a4,a5,.L96
 1233 0fe8 0327C4FE 		lw	a4,-20(s0)
 1234 0fec B707FFFF 		li	a5,-65536
 1235 0ff0 B367F700 		or	a5,a4,a5
 1236 0ff4 2326F4FE 		sw	a5,-20(s0)
 1237 0ff8 6F008001 		j	.L97
 1238              	.L96:
 1239 0ffc 0327C4FE 		lw	a4,-20(s0)
 1240 1000 B7070100 		li	a5,65536
 1241 1004 9387F7FF 		addi	a5,a5,-1
 1242 1008 B377F700 		and	a5,a4,a5
 1243 100c 2326F4FE 		sw	a5,-20(s0)
 1244              	.L97:
 1245 1010 8347E4FD 		lbu	a5,-34(s0)
 1246 1014 93972700 		slli	a5,a5,2
 1247 1018 0327C4FC 		lw	a4,-52(s0)
 1248 101c B307F700 		add	a5,a4,a5
 1249 1020 0327C4FE 		lw	a4,-20(s0)
 1250 1024 23A0E700 		sw	a4,0(a5)
 1251 1028 6F000012 		j	.L95
 1252              	.L90:
 1253 102c 8347D4FD 		lbu	a5,-35(s0)
 1254 1030 93972700 		slli	a5,a5,2
 1255 1034 0327C4FC 		lw	a4,-52(s0)
 1256 1038 B307F700 		add	a5,a4,a5
 1257 103c 03A70700 		lw	a4,0(a5)
 1258 1040 8357A4FD 		lhu	a5,-38(s0)
 1259 1044 B307F700 		add	a5,a4,a5
 1260 1048 13860700 		mv	a2,a5
 1261 104c 832504FD 		lw	a1,-48(s0)
 1262 1050 032544FD 		lw	a0,-44(s0)
 1263 1054 97000000 		call	readWord@plt
 1263      E7800000 
 1264 105c 93060500 		mv	a3,a0
 1265 1060 8347E4FD 		lbu	a5,-34(s0)
 1266 1064 93972700 		slli	a5,a5,2
 1267 1068 0327C4FC 		lw	a4,-52(s0)
 1268 106c B307F700 		add	a5,a4,a5
 1269 1070 13870600 		mv	a4,a3
 1270 1074 23A0E700 		sw	a4,0(a5)
 1271 1078 6F00000D 		j	.L95
 1272              	.L89:
 1273 107c 8347D4FD 		lbu	a5,-35(s0)
 1274 1080 93972700 		slli	a5,a5,2
 1275 1084 0327C4FC 		lw	a4,-52(s0)
 1276 1088 B307F700 		add	a5,a4,a5
 1277 108c 03A70700 		lw	a4,0(a5)
GAS LISTING main.s 			page 25


 1278 1090 8357A4FD 		lhu	a5,-38(s0)
 1279 1094 B307F700 		add	a5,a4,a5
 1280 1098 13860700 		mv	a2,a5
 1281 109c 832504FD 		lw	a1,-48(s0)
 1282 10a0 032544FD 		lw	a0,-44(s0)
 1283 10a4 97000000 		call	readByte@plt
 1283      E7800000 
 1284 10ac 2326A4FE 		sw	a0,-20(s0)
 1285 10b0 0327C4FE 		lw	a4,-20(s0)
 1286 10b4 8347E4FD 		lbu	a5,-34(s0)
 1287 10b8 93972700 		slli	a5,a5,2
 1288 10bc 8326C4FC 		lw	a3,-52(s0)
 1289 10c0 B387F600 		add	a5,a3,a5
 1290 10c4 1377F70F 		andi	a4,a4,255
 1291 10c8 23A0E700 		sw	a4,0(a5)
 1292 10cc 6F00C007 		j	.L95
 1293              	.L87:
 1294 10d0 8347D4FD 		lbu	a5,-35(s0)
 1295 10d4 93972700 		slli	a5,a5,2
 1296 10d8 0327C4FC 		lw	a4,-52(s0)
 1297 10dc B307F700 		add	a5,a4,a5
 1298 10e0 03A70700 		lw	a4,0(a5)
 1299 10e4 8357A4FD 		lhu	a5,-38(s0)
 1300 10e8 B307F700 		add	a5,a4,a5
 1301 10ec 13860700 		mv	a2,a5
 1302 10f0 832504FD 		lw	a1,-48(s0)
 1303 10f4 032544FD 		lw	a0,-44(s0)
 1304 10f8 97000000 		call	readHalfWord@plt
 1304      E7800000 
 1305 1100 2326A4FE 		sw	a0,-20(s0)
 1306 1104 8326C4FE 		lw	a3,-20(s0)
 1307 1108 8347E4FD 		lbu	a5,-34(s0)
 1308 110c 93972700 		slli	a5,a5,2
 1309 1110 0327C4FC 		lw	a4,-52(s0)
 1310 1114 B307F700 		add	a5,a4,a5
 1311 1118 37070100 		li	a4,65536
 1312 111c 1307F7FF 		addi	a4,a4,-1
 1313 1120 33F7E600 		and	a4,a3,a4
 1314 1124 23A0E700 		sw	a4,0(a5)
 1315 1128 6F000002 		j	.L95
 1316              	.L86:
 1317 112c 17050000 		lla	a0,.LC18
 1317      13050500 
 1318 1134 97000000 		call	puts@plt
 1318      E7800000 
 1319 113c 13051000 		li	a0,1
 1320 1140 97000000 		call	exit@plt
 1320      E7800000 
 1321              	.L95:
 1322 1148 13000000 		nop
 1323 114c 8320C103 		lw	ra,60(sp)
 1324 1150 03248103 		lw	s0,56(sp)
 1325 1154 13010104 		addi	sp,sp,64
 1326 1158 67800000 		jr	ra
 1328              		.section	.rodata
 1329              		.align	2
 1330              	.LC19:
GAS LISTING main.s 			page 26


 1331 02dc 30782530 		.string	"0x%02X is not a valid S-type Function3 value.\n"
 1331      32582069 
 1331      73206E6F 
 1331      74206120 
 1331      76616C69 
 1332              		.text
 1333              		.align	2
 1334              		.globl	s_type
 1336              	s_type:
 1337 115c 130101FC 		addi	sp,sp,-64
 1338 1160 232E1102 		sw	ra,60(sp)
 1339 1164 232C8102 		sw	s0,56(sp)
 1340 1168 13040104 		addi	s0,sp,64
 1341 116c 2326A4FC 		sw	a0,-52(s0)
 1342 1170 2324B4FC 		sw	a1,-56(s0)
 1343 1174 2322C4FC 		sw	a2,-60(s0)
 1344 1178 2320D4FC 		sw	a3,-64(s0)
 1345 117c 832744FC 		lw	a5,-60(s0)
 1346 1180 93F7C7FF 		andi	a5,a5,-4
 1347 1184 0327C4FC 		lw	a4,-52(s0)
 1348 1188 B307F700 		add	a5,a4,a5
 1349 118c 83A70700 		lw	a5,0(a5)
 1350 1190 2324F4FE 		sw	a5,-24(s0)
 1351 1194 832784FE 		lw	a5,-24(s0)
 1352 1198 93F7F70F 		andi	a5,a5,0xff
 1353 119c 93F7F707 		andi	a5,a5,127
 1354 11a0 A303F4FE 		sb	a5,-25(s0)
 1355 11a4 832784FE 		lw	a5,-24(s0)
 1356 11a8 93D77700 		srli	a5,a5,7
 1357 11ac 93F7F70F 		andi	a5,a5,0xff
 1358 11b0 93F7F701 		andi	a5,a5,31
 1359 11b4 2303F4FE 		sb	a5,-26(s0)
 1360 11b8 832784FE 		lw	a5,-24(s0)
 1361 11bc 93D7C700 		srli	a5,a5,12
 1362 11c0 93F7F70F 		andi	a5,a5,0xff
 1363 11c4 93F77700 		andi	a5,a5,7
 1364 11c8 A302F4FE 		sb	a5,-27(s0)
 1365 11cc 832784FE 		lw	a5,-24(s0)
 1366 11d0 93D7F700 		srli	a5,a5,15
 1367 11d4 93F7F70F 		andi	a5,a5,0xff
 1368 11d8 93F7F701 		andi	a5,a5,31
 1369 11dc 2302F4FE 		sb	a5,-28(s0)
 1370 11e0 832784FE 		lw	a5,-24(s0)
 1371 11e4 93D74701 		srli	a5,a5,20
 1372 11e8 93F7F70F 		andi	a5,a5,0xff
 1373 11ec 93F7F701 		andi	a5,a5,31
 1374 11f0 A301F4FE 		sb	a5,-29(s0)
 1375 11f4 832784FE 		lw	a5,-24(s0)
 1376 11f8 93D79701 		srli	a5,a5,25
 1377 11fc 2301F4FE 		sb	a5,-30(s0)
 1378 1200 834724FE 		lbu	a5,-30(s0)
 1379 1204 93970701 		slli	a5,a5,16
 1380 1208 93D70701 		srli	a5,a5,16
 1381 120c 93975700 		slli	a5,a5,5
 1382 1210 13970701 		slli	a4,a5,16
 1383 1214 13570701 		srli	a4,a4,16
 1384 1218 834764FE 		lbu	a5,-26(s0)
GAS LISTING main.s 			page 27


 1385 121c 93970701 		slli	a5,a5,16
 1386 1220 93D70701 		srli	a5,a5,16
 1387 1224 B307F700 		add	a5,a4,a5
 1388 1228 93970701 		slli	a5,a5,16
 1389 122c 93D70701 		srli	a5,a5,16
 1390 1230 2317F4FE 		sh	a5,-18(s0)
 1391 1234 8317E4FE 		lh	a5,-18(s0)
 1392 1238 93D7B740 		srai	a5,a5,11
 1393 123c 93970701 		slli	a5,a5,16
 1394 1240 93D70741 		srai	a5,a5,16
 1395 1244 93970701 		slli	a5,a5,16
 1396 1248 93D70701 		srli	a5,a5,16
 1397 124c 93F71700 		andi	a5,a5,1
 1398 1250 232EF4FC 		sw	a5,-36(s0)
 1399 1254 0327C4FD 		lw	a4,-36(s0)
 1400 1258 93071000 		li	a5,1
 1401 125c 6310F702 		bne	a4,a5,.L100
 1402 1260 0357E4FE 		lhu	a4,-18(s0)
 1403 1264 B7F7FFFF 		li	a5,-4096
 1404 1268 B367F700 		or	a5,a4,a5
 1405 126c 93970701 		slli	a5,a5,16
 1406 1270 93D70701 		srli	a5,a5,16
 1407 1274 2317F4FE 		sh	a5,-18(s0)
 1408 1278 6F008001 		j	.L101
 1409              	.L100:
 1410 127c 0357E4FE 		lhu	a4,-18(s0)
 1411 1280 B7170000 		li	a5,4096
 1412 1284 9387F7FF 		addi	a5,a5,-1
 1413 1288 B377F700 		and	a5,a4,a5
 1414 128c 2317F4FE 		sh	a5,-18(s0)
 1415              	.L101:
 1416 1290 834754FE 		lbu	a5,-27(s0)
 1417 1294 13072000 		li	a4,2
 1418 1298 6386E70A 		beq	a5,a4,.L102
 1419 129c 13072000 		li	a4,2
 1420 12a0 6346F70E 		bgt	a5,a4,.L103
 1421 12a4 63880700 		beq	a5,zero,.L104
 1422 12a8 13071000 		li	a4,1
 1423 12ac 6388E704 		beq	a5,a4,.L105
 1424 12b0 6F00C00D 		j	.L103
 1425              	.L104:
 1426 12b4 834744FE 		lbu	a5,-28(s0)
 1427 12b8 93972700 		slli	a5,a5,2
 1428 12bc 032704FC 		lw	a4,-64(s0)
 1429 12c0 B307F700 		add	a5,a4,a5
 1430 12c4 03A70700 		lw	a4,0(a5)
 1431 12c8 8317E4FE 		lh	a5,-18(s0)
 1432 12cc 3306F700 		add	a2,a4,a5
 1433 12d0 834734FE 		lbu	a5,-29(s0)
 1434 12d4 93972700 		slli	a5,a5,2
 1435 12d8 032704FC 		lw	a4,-64(s0)
 1436 12dc B307F700 		add	a5,a4,a5
 1437 12e0 83A70700 		lw	a5,0(a5)
 1438 12e4 93860700 		mv	a3,a5
 1439 12e8 832584FC 		lw	a1,-56(s0)
 1440 12ec 0325C4FC 		lw	a0,-52(s0)
 1441 12f0 97000000 		call	writeByte@plt
GAS LISTING main.s 			page 28


 1441      E7800000 
 1442 12f8 6F00000C 		j	.L106
 1443              	.L105:
 1444 12fc 834744FE 		lbu	a5,-28(s0)
 1445 1300 93972700 		slli	a5,a5,2
 1446 1304 032704FC 		lw	a4,-64(s0)
 1447 1308 B307F700 		add	a5,a4,a5
 1448 130c 03A70700 		lw	a4,0(a5)
 1449 1310 8317E4FE 		lh	a5,-18(s0)
 1450 1314 3306F700 		add	a2,a4,a5
 1451 1318 834734FE 		lbu	a5,-29(s0)
 1452 131c 93972700 		slli	a5,a5,2
 1453 1320 032704FC 		lw	a4,-64(s0)
 1454 1324 B307F700 		add	a5,a4,a5
 1455 1328 83A70700 		lw	a5,0(a5)
 1456 132c 93860700 		mv	a3,a5
 1457 1330 832584FC 		lw	a1,-56(s0)
 1458 1334 0325C4FC 		lw	a0,-52(s0)
 1459 1338 97000000 		call	writeHalfWord@plt
 1459      E7800000 
 1460 1340 6F008007 		j	.L106
 1461              	.L102:
 1462 1344 834744FE 		lbu	a5,-28(s0)
 1463 1348 93972700 		slli	a5,a5,2
 1464 134c 032704FC 		lw	a4,-64(s0)
 1465 1350 B307F700 		add	a5,a4,a5
 1466 1354 03A70700 		lw	a4,0(a5)
 1467 1358 8317E4FE 		lh	a5,-18(s0)
 1468 135c 3306F700 		add	a2,a4,a5
 1469 1360 834734FE 		lbu	a5,-29(s0)
 1470 1364 93972700 		slli	a5,a5,2
 1471 1368 032704FC 		lw	a4,-64(s0)
 1472 136c B307F700 		add	a5,a4,a5
 1473 1370 83A70700 		lw	a5,0(a5)
 1474 1374 93860700 		mv	a3,a5
 1475 1378 832584FC 		lw	a1,-56(s0)
 1476 137c 0325C4FC 		lw	a0,-52(s0)
 1477 1380 97000000 		call	writeWord@plt
 1477      E7800000 
 1478 1388 6F000003 		j	.L106
 1479              	.L103:
 1480 138c 97070000 		la	a5,_impure_ptr
 1480      83A70700 
 1481 1394 83A70700 		lw	a5,0(a5)
 1482 1398 83A7C700 		lw	a5,12(a5)
 1483 139c 034754FE 		lbu	a4,-27(s0)
 1484 13a0 13060700 		mv	a2,a4
 1485 13a4 97050000 		lla	a1,.LC19
 1485      93850500 
 1486 13ac 13850700 		mv	a0,a5
 1487 13b0 97000000 		call	fprintf@plt
 1487      E7800000 
 1488              	.L106:
 1489 13b8 13000000 		nop
 1490 13bc 8320C103 		lw	ra,60(sp)
 1491 13c0 03248103 		lw	s0,56(sp)
 1492 13c4 13010104 		addi	sp,sp,64
GAS LISTING main.s 			page 29


 1493 13c8 67800000 		jr	ra
 1495              		.align	2
 1496              		.globl	b_type
 1498              	b_type:
 1499 13cc 130101FC 		addi	sp,sp,-64
 1500 13d0 232E8102 		sw	s0,60(sp)
 1501 13d4 13040104 		addi	s0,sp,64
 1502 13d8 2326A4FC 		sw	a0,-52(s0)
 1503 13dc 2324B4FC 		sw	a1,-56(s0)
 1504 13e0 2322C4FC 		sw	a2,-60(s0)
 1505 13e4 2320D4FC 		sw	a3,-64(s0)
 1506 13e8 832744FC 		lw	a5,-60(s0)
 1507 13ec 93F7C7FF 		andi	a5,a5,-4
 1508 13f0 0327C4FC 		lw	a4,-52(s0)
 1509 13f4 B307F700 		add	a5,a4,a5
 1510 13f8 83A70700 		lw	a5,0(a5)
 1511 13fc 2326F4FE 		sw	a5,-20(s0)
 1512 1400 8327C4FE 		lw	a5,-20(s0)
 1513 1404 93F7F70F 		andi	a5,a5,0xff
 1514 1408 93F7F707 		andi	a5,a5,127
 1515 140c A305F4FE 		sb	a5,-21(s0)
 1516 1410 8327C4FE 		lw	a5,-20(s0)
 1517 1414 93D78700 		srli	a5,a5,8
 1518 1418 93F7F70F 		andi	a5,a5,0xff
 1519 141c 93F7F700 		andi	a5,a5,15
 1520 1420 2305F4FE 		sb	a5,-22(s0)
 1521 1424 8327C4FE 		lw	a5,-20(s0)
 1522 1428 93D77700 		srli	a5,a5,7
 1523 142c 93F7F70F 		andi	a5,a5,0xff
 1524 1430 93F71700 		andi	a5,a5,1
 1525 1434 A304F4FE 		sb	a5,-23(s0)
 1526 1438 8327C4FE 		lw	a5,-20(s0)
 1527 143c 93D7C700 		srli	a5,a5,12
 1528 1440 93F7F70F 		andi	a5,a5,0xff
 1529 1444 93F77700 		andi	a5,a5,7
 1530 1448 2304F4FE 		sb	a5,-24(s0)
 1531 144c 8327C4FE 		lw	a5,-20(s0)
 1532 1450 93D7F700 		srli	a5,a5,15
 1533 1454 93F7F70F 		andi	a5,a5,0xff
 1534 1458 93F7F701 		andi	a5,a5,31
 1535 145c A303F4FE 		sb	a5,-25(s0)
 1536 1460 8327C4FE 		lw	a5,-20(s0)
 1537 1464 93D74701 		srli	a5,a5,20
 1538 1468 93F7F70F 		andi	a5,a5,0xff
 1539 146c 93F7F701 		andi	a5,a5,31
 1540 1470 2303F4FE 		sb	a5,-26(s0)
 1541 1474 8327C4FE 		lw	a5,-20(s0)
 1542 1478 93D79701 		srli	a5,a5,25
 1543 147c 93F7F70F 		andi	a5,a5,0xff
 1544 1480 93F7F703 		andi	a5,a5,63
 1545 1484 A302F4FE 		sb	a5,-27(s0)
 1546 1488 8327C4FE 		lw	a5,-20(s0)
 1547 148c 93D7F701 		srli	a5,a5,31
 1548 1490 2302F4FE 		sb	a5,-28(s0)
 1549 1494 834744FE 		lbu	a5,-28(s0)
 1550 1498 93970701 		slli	a5,a5,16
 1551 149c 93D70701 		srli	a5,a5,16
GAS LISTING main.s 			page 30


 1552 14a0 9397C700 		slli	a5,a5,12
 1553 14a4 13970701 		slli	a4,a5,16
 1554 14a8 13570701 		srli	a4,a4,16
 1555 14ac 834794FE 		lbu	a5,-23(s0)
 1556 14b0 93970701 		slli	a5,a5,16
 1557 14b4 93D70701 		srli	a5,a5,16
 1558 14b8 9397B700 		slli	a5,a5,11
 1559 14bc 93970701 		slli	a5,a5,16
 1560 14c0 93D70701 		srli	a5,a5,16
 1561 14c4 B307F700 		add	a5,a4,a5
 1562 14c8 13970701 		slli	a4,a5,16
 1563 14cc 13570701 		srli	a4,a4,16
 1564 14d0 834754FE 		lbu	a5,-27(s0)
 1565 14d4 93970701 		slli	a5,a5,16
 1566 14d8 93D70701 		srli	a5,a5,16
 1567 14dc 93975700 		slli	a5,a5,5
 1568 14e0 93970701 		slli	a5,a5,16
 1569 14e4 93D70701 		srli	a5,a5,16
 1570 14e8 B307F700 		add	a5,a4,a5
 1571 14ec 13970701 		slli	a4,a5,16
 1572 14f0 13570701 		srli	a4,a4,16
 1573 14f4 8347A4FE 		lbu	a5,-22(s0)
 1574 14f8 93970701 		slli	a5,a5,16
 1575 14fc 93D70701 		srli	a5,a5,16
 1576 1500 93971700 		slli	a5,a5,1
 1577 1504 93970701 		slli	a5,a5,16
 1578 1508 93D70701 		srli	a5,a5,16
 1579 150c B307F700 		add	a5,a4,a5
 1580 1510 93970701 		slli	a5,a5,16
 1581 1514 93D70701 		srli	a5,a5,16
 1582 1518 2311F4FE 		sh	a5,-30(s0)
 1583 151c 831724FE 		lh	a5,-30(s0)
 1584 1520 93D7C740 		srai	a5,a5,12
 1585 1524 93970701 		slli	a5,a5,16
 1586 1528 93D70741 		srai	a5,a5,16
 1587 152c 93970701 		slli	a5,a5,16
 1588 1530 93D70701 		srli	a5,a5,16
 1589 1534 93F71700 		andi	a5,a5,1
 1590 1538 232EF4FC 		sw	a5,-36(s0)
 1591 153c 0327C4FD 		lw	a4,-36(s0)
 1592 1540 93071000 		li	a5,1
 1593 1544 6310F702 		bne	a4,a5,.L109
 1594 1548 035724FE 		lhu	a4,-30(s0)
 1595 154c B7E7FFFF 		li	a5,-8192
 1596 1550 B367F700 		or	a5,a4,a5
 1597 1554 93970701 		slli	a5,a5,16
 1598 1558 93D70701 		srli	a5,a5,16
 1599 155c 2311F4FE 		sh	a5,-30(s0)
 1600 1560 6F00C001 		j	.L108
 1601              	.L109:
 1602 1564 035724FE 		lhu	a4,-30(s0)
 1603 1568 B7270000 		li	a5,8192
 1604 156c 9387F7FF 		addi	a5,a5,-1
 1605 1570 B377F700 		and	a5,a4,a5
 1606 1574 2311F4FE 		sh	a5,-30(s0)
 1607 1578 13000000 		nop
 1608              	.L108:
GAS LISTING main.s 			page 31


 1609 157c 0324C103 		lw	s0,60(sp)
 1610 1580 13010104 		addi	sp,sp,64
 1611 1584 67800000 		jr	ra
 1613              		.section	.rodata
 1614 030b 00       		.align	2
 1615              	.LC20:
 1616 030c 496E7661 		.string	"Invalid U-type instruction.\n"
 1616      6C696420 
 1616      552D7479 
 1616      70652069 
 1616      6E737472 
 1617              		.text
 1618              		.align	2
 1619              		.globl	u_type
 1621              	u_type:
 1622 1588 130101FD 		addi	sp,sp,-48
 1623 158c 23261102 		sw	ra,44(sp)
 1624 1590 23248102 		sw	s0,40(sp)
 1625 1594 13040103 		addi	s0,sp,48
 1626 1598 232EA4FC 		sw	a0,-36(s0)
 1627 159c 232CB4FC 		sw	a1,-40(s0)
 1628 15a0 232AC4FC 		sw	a2,-44(s0)
 1629 15a4 2328D4FC 		sw	a3,-48(s0)
 1630 15a8 832744FD 		lw	a5,-44(s0)
 1631 15ac 93F7C7FF 		andi	a5,a5,-4
 1632 15b0 0327C4FD 		lw	a4,-36(s0)
 1633 15b4 B307F700 		add	a5,a4,a5
 1634 15b8 83A70700 		lw	a5,0(a5)
 1635 15bc 2326F4FE 		sw	a5,-20(s0)
 1636 15c0 8327C4FE 		lw	a5,-20(s0)
 1637 15c4 93F7F70F 		andi	a5,a5,0xff
 1638 15c8 93F7F707 		andi	a5,a5,127
 1639 15cc A305F4FE 		sb	a5,-21(s0)
 1640 15d0 8327C4FE 		lw	a5,-20(s0)
 1641 15d4 93D77700 		srli	a5,a5,7
 1642 15d8 93F7F70F 		andi	a5,a5,0xff
 1643 15dc 93F7F701 		andi	a5,a5,31
 1644 15e0 2305F4FE 		sb	a5,-22(s0)
 1645 15e4 0327C4FE 		lw	a4,-20(s0)
 1646 15e8 B7F7FFFF 		li	a5,-4096
 1647 15ec B377F700 		and	a5,a4,a5
 1648 15f0 2322F4FE 		sw	a5,-28(s0)
 1649 15f4 8347B4FE 		lbu	a5,-21(s0)
 1650 15f8 13077001 		li	a4,23
 1651 15fc 6386E702 		beq	a5,a4,.L113
 1652 1600 13077003 		li	a4,55
 1653 1604 639AE704 		bne	a5,a4,.L114
 1654 1608 8347A4FE 		lbu	a5,-22(s0)
 1655 160c 93972700 		slli	a5,a5,2
 1656 1610 032704FD 		lw	a4,-48(s0)
 1657 1614 B307F700 		add	a5,a4,a5
 1658 1618 032744FE 		lw	a4,-28(s0)
 1659 161c 1317C700 		slli	a4,a4,12
 1660 1620 23A0E700 		sw	a4,0(a5)
 1661 1624 6F004006 		j	.L115
 1662              	.L113:
 1663 1628 832744FE 		lw	a5,-28(s0)
GAS LISTING main.s 			page 32


 1664 162c 9397C700 		slli	a5,a5,12
 1665 1630 13870700 		mv	a4,a5
 1666 1634 832744FD 		lw	a5,-44(s0)
 1667 1638 B306F700 		add	a3,a4,a5
 1668 163c 8347A4FE 		lbu	a5,-22(s0)
 1669 1640 93972700 		slli	a5,a5,2
 1670 1644 032704FD 		lw	a4,-48(s0)
 1671 1648 B307F700 		add	a5,a4,a5
 1672 164c 13870600 		mv	a4,a3
 1673 1650 23A0E700 		sw	a4,0(a5)
 1674 1654 6F004003 		j	.L115
 1675              	.L114:
 1676 1658 97070000 		la	a5,_impure_ptr
 1676      83A70700 
 1677 1660 83A70700 		lw	a5,0(a5)
 1678 1664 83A7C700 		lw	a5,12(a5)
 1679 1668 93860700 		mv	a3,a5
 1680 166c 1306C001 		li	a2,28
 1681 1670 93051000 		li	a1,1
 1682 1674 17050000 		lla	a0,.LC20
 1682      13050500 
 1683 167c 97000000 		call	fwrite@plt
 1683      E7800000 
 1684 1684 13000000 		nop
 1685              	.L115:
 1686 1688 13000000 		nop
 1687 168c 8320C102 		lw	ra,44(sp)
 1688 1690 03248102 		lw	s0,40(sp)
 1689 1694 13010103 		addi	sp,sp,48
 1690 1698 67800000 		jr	ra
 1692              		.align	2
 1693              		.globl	j_type
 1695              	j_type:
 1696 169c 130101FC 		addi	sp,sp,-64
 1697 16a0 232E8102 		sw	s0,60(sp)
 1698 16a4 13040104 		addi	s0,sp,64
 1699 16a8 2326A4FC 		sw	a0,-52(s0)
 1700 16ac 2324B4FC 		sw	a1,-56(s0)
 1701 16b0 2322C4FC 		sw	a2,-60(s0)
 1702 16b4 2320D4FC 		sw	a3,-64(s0)
 1703 16b8 832744FC 		lw	a5,-60(s0)
 1704 16bc 93F7C7FF 		andi	a5,a5,-4
 1705 16c0 0327C4FC 		lw	a4,-52(s0)
 1706 16c4 B307F700 		add	a5,a4,a5
 1707 16c8 83A70700 		lw	a5,0(a5)
 1708 16cc 2326F4FE 		sw	a5,-20(s0)
 1709 16d0 8327C4FE 		lw	a5,-20(s0)
 1710 16d4 93F7F70F 		andi	a5,a5,0xff
 1711 16d8 93F7F707 		andi	a5,a5,127
 1712 16dc A305F4FE 		sb	a5,-21(s0)
 1713 16e0 8327C4FE 		lw	a5,-20(s0)
 1714 16e4 93D77700 		srli	a5,a5,7
 1715 16e8 93F7F70F 		andi	a5,a5,0xff
 1716 16ec 93F7F701 		andi	a5,a5,31
 1717 16f0 2305F4FE 		sb	a5,-22(s0)
 1718 16f4 8327C4FE 		lw	a5,-20(s0)
 1719 16f8 93D7C700 		srli	a5,a5,12
GAS LISTING main.s 			page 33


 1720 16fc 2322F4FE 		sw	a5,-28(s0)
 1721 1700 032744FE 		lw	a4,-28(s0)
 1722 1704 B7070800 		li	a5,524288
 1723 1708 B377F700 		and	a5,a4,a5
 1724 170c 2320F4FE 		sw	a5,-32(s0)
 1725 1710 832744FE 		lw	a5,-28(s0)
 1726 1714 93D79740 		srai	a5,a5,9
 1727 1718 93F7F73F 		andi	a5,a5,1023
 1728 171c 232EF4FC 		sw	a5,-36(s0)
 1729 1720 832744FE 		lw	a5,-28(s0)
 1730 1724 93D78740 		srai	a5,a5,8
 1731 1728 9397A700 		slli	a5,a5,10
 1732 172c 93F70740 		andi	a5,a5,1024
 1733 1730 232CF4FC 		sw	a5,-40(s0)
 1734 1734 832744FE 		lw	a5,-28(s0)
 1735 1738 9397B700 		slli	a5,a5,11
 1736 173c 13870700 		mv	a4,a5
 1737 1740 B7070800 		li	a5,524288
 1738 1744 93870780 		addi	a5,a5,-2048
 1739 1748 B377F700 		and	a5,a4,a5
 1740 174c 232AF4FC 		sw	a5,-44(s0)
 1741 1750 032704FE 		lw	a4,-32(s0)
 1742 1754 832744FD 		lw	a5,-44(s0)
 1743 1758 3307F700 		add	a4,a4,a5
 1744 175c 832784FD 		lw	a5,-40(s0)
 1745 1760 3307F700 		add	a4,a4,a5
 1746 1764 8327C4FD 		lw	a5,-36(s0)
 1747 1768 B307F700 		add	a5,a4,a5
 1748 176c 93971700 		slli	a5,a5,1
 1749 1770 2322F4FE 		sw	a5,-28(s0)
 1750 1774 832744FE 		lw	a5,-28(s0)
 1751 1778 93D74741 		srai	a5,a5,20
 1752 177c 93F71700 		andi	a5,a5,1
 1753 1780 2328F4FC 		sw	a5,-48(s0)
 1754 1784 032704FD 		lw	a4,-48(s0)
 1755 1788 93071000 		li	a5,1
 1756 178c 631CF700 		bne	a4,a5,.L118
 1757 1790 032744FE 		lw	a4,-28(s0)
 1758 1794 B707E0FF 		li	a5,-2097152
 1759 1798 B367F700 		or	a5,a4,a5
 1760 179c 2322F4FE 		sw	a5,-28(s0)
 1761 17a0 6F00C001 		j	.L117
 1762              	.L118:
 1763 17a4 032744FE 		lw	a4,-28(s0)
 1764 17a8 B7072000 		li	a5,2097152
 1765 17ac 9387F7FF 		addi	a5,a5,-1
 1766 17b0 B377F700 		and	a5,a4,a5
 1767 17b4 2322F4FE 		sw	a5,-28(s0)
 1768 17b8 13000000 		nop
 1769              	.L117:
 1770 17bc 0324C103 		lw	s0,60(sp)
 1771 17c0 13010104 		addi	sp,sp,64
 1772 17c4 67800000 		jr	ra
 1774              		.ident	"GCC: (GNU) 10.2.0"
